(dp0
S'maroon4'
p1
(I139
I28
I98
I255
tp2
sS'gold'
p3
(I255
I215
I0
I255
tp4
sS'dodgerblue3'
p5
(I24
I116
I205
I255
tp6
sS'maroon3'
p7
(I205
I41
I144
I255
tp8
sS'slategray1'
p9
(I198
I226
I255
I255
tp10
sS'yellow'
p11
(I255
I255
I0
I255
tp12
sS'maroon2'
p13
(I238
I48
I167
I255
tp14
sS'grey61'
p15
(I156
I156
I156
I255
tp16
sS'grey60'
p17
(I153
I153
I153
I255
tp18
sS'darkseagreen'
p19
(I143
I188
I143
I255
tp20
sS'grey62'
p21
(I158
I158
I158
I255
tp22
sS'grey65'
p23
(I166
I166
I166
I255
tp24
sS'maroon1'
p25
(I255
I52
I179
I255
tp26
sS'grey67'
p27
(I171
I171
I171
I255
tp28
sS'grey66'
p29
(I168
I168
I168
I255
tp30
sS'grey69'
p31
(I176
I176
I176
I255
tp32
sS'grey68'
p33
(I173
I173
I173
I255
tp34
sS'lightsalmon4'
p35
(I139
I87
I66
I255
tp36
sS'lightsalmon2'
p37
(I238
I149
I114
I255
tp38
sS'lightsalmon3'
p39
(I205
I129
I98
I255
tp40
sS'pink2'
p41
(I238
I169
I184
I255
tp42
sS'lightsalmon1'
p43
(I255
I160
I122
I255
tp44
sS'gray32'
p45
(I82
I82
I82
I255
tp46
sS'green4'
p47
(I0
I139
I0
I255
tp48
sS'gray30'
p49
(I77
I77
I77
I255
tp50
sS'gray31'
p51
(I79
I79
I79
I255
tp52
sS'green1'
p53
(I0
I255
I0
I255
tp54
sS'gray37'
p55
(I94
I94
I94
I255
tp56
sS'green3'
p57
(I0
I205
I0
I255
tp58
sS'green2'
p59
(I0
I238
I0
I255
tp60
sS'darkslategray1'
p61
(I151
I255
I255
I255
tp62
sS'darkslategray2'
p63
(I141
I238
I238
I255
tp64
sS'darkslategray3'
p65
(I121
I205
I205
I255
tp66
sS'aquamarine1'
p67
(I127
I255
I212
I255
tp68
sS'aquamarine3'
p69
(I102
I205
I170
I255
tp70
sS'aquamarine2'
p71
(I118
I238
I198
I255
tp72
sS'papayawhip'
p73
(I255
I239
I213
I255
tp74
sS'black'
p75
(I0
I0
I0
I255
tp76
sS'antiquewhite'
p77
(I250
I235
I215
I255
tp78
sS'yellow2'
p79
(I238
I238
I0
I255
tp80
sS'gray20'
p81
(I51
I51
I51
I255
tp82
sS'orchid4'
p83
(I139
I71
I137
I255
tp84
sS'wheat1'
p85
(I255
I231
I186
I255
tp86
sS'orchid1'
p87
(I255
I131
I250
I255
tp88
sS'orchid2'
p89
(I238
I122
I233
I255
tp90
sS'orchid3'
p91
(I205
I105
I201
I255
tp92
sS'brown'
p93
(I165
I42
I42
I255
tp94
sS'wheat3'
p95
(I205
I186
I150
I255
tp96
sS'slategray3'
p97
(I159
I182
I205
I255
tp98
sS'antiquewhite3'
p99
(I205
I192
I176
I255
tp100
sS'antiquewhite2'
p101
(I238
I223
I204
I255
tp102
sS'antiquewhite1'
p103
(I255
I239
I219
I255
tp104
sS'gold4'
p105
(I139
I117
I0
I255
tp106
sS'antiquewhite4'
p107
(I139
I131
I120
I255
tp108
sS'burlywood2'
p109
(I238
I197
I145
I255
tp110
sS'indianred4'
p111
(I139
I58
I58
I255
tp112
sS'gray8'
p113
(I20
I20
I20
I255
tp114
sS'gray9'
p115
(I23
I23
I23
I255
tp116
sS'lawngreen'
p117
(I124
I252
I0
I255
tp118
sS'bisque4'
p119
(I139
I125
I107
I255
tp120
sS'cyan'
p121
(I0
I255
I255
I255
tp122
sS'gray0'
p123
(I0
I0
I0
I255
tp124
sS'gray1'
p125
(I3
I3
I3
I255
tp126
sS'gray6'
p127
(I15
I15
I15
I255
tp128
sS'bisque1'
p129
(I255
I228
I196
I255
tp130
sS'bisque2'
p131
(I238
I213
I183
I255
tp132
sS'bisque3'
p133
(I205
I183
I158
I255
tp134
sS'skyblue'
p135
(I135
I206
I235
I255
tp136
sS'gray'
p137
(I190
I190
I190
I255
tp138
sS'darkturquoise'
p139
(I0
I206
I209
I255
tp140
sS'gray98'
p141
(I250
I250
I250
I255
tp142
sS'slategray4'
p143
(I108
I123
I139
I255
tp144
sS'darkgoldenrod2'
p145
(I238
I173
I14
I255
tp146
sS'cornsilk1'
p147
(I255
I248
I220
I255
tp148
sS'grey63'
p149
(I161
I161
I161
I255
tp150
sS'gray99'
p151
(I252
I252
I252
I255
tp152
sS'navajowhite3'
p153
(I205
I179
I139
I255
tp154
sS'lightpink'
p155
(I255
I182
I193
I255
tp156
sS'rosybrown1'
p157
(I255
I193
I193
I255
tp158
sS'chocolate1'
p159
(I255
I127
I36
I255
tp160
sS'lemonchiffon3'
p161
(I205
I201
I165
I255
tp162
sS'lemonchiffon2'
p163
(I238
I233
I191
I255
tp164
sS'lemonchiffon1'
p165
(I255
I250
I205
I255
tp166
sS'coral4'
p167
(I139
I62
I47
I255
tp168
sS'plum3'
p169
(I205
I150
I205
I255
tp170
sS'plum2'
p171
(I238
I174
I238
I255
tp172
sS'plum1'
p173
(I255
I187
I255
I255
tp174
sS'lemonchiffon4'
p175
(I139
I137
I112
I255
tp176
sS'chocolate3'
p177
(I205
I102
I29
I255
tp178
sS'lightblue3'
p179
(I154
I192
I205
I255
tp180
sS'saddlebrown'
p181
(I139
I69
I19
I255
tp182
sS'lightgoldenrodyellow'
p183
(I250
I250
I210
I255
tp184
sS'lavender'
p185
(I230
I230
I250
I255
tp186
sS'grey'
p187
(I190
I190
I190
I255
tp188
sS'chartreuse3'
p189
(I102
I205
I0
I255
tp190
sS'chartreuse2'
p191
(I118
I238
I0
I255
tp192
sS'chartreuse1'
p193
(I127
I255
I0
I255
tp194
sS'grey48'
p195
(I122
I122
I122
I255
tp196
sS'cyan4'
p197
(I0
I139
I139
I255
tp198
sS'darkslateblue'
p199
(I72
I61
I139
I255
tp200
sS'thistle'
p201
(I216
I191
I216
I255
tp202
sS'chartreuse4'
p203
(I69
I139
I0
I255
tp204
sS'darkorchid4'
p205
(I104
I34
I139
I255
tp206
sS'grey42'
p207
(I107
I107
I107
I255
tp208
sS'grey41'
p209
(I105
I105
I105
I255
tp210
sS'lightskyblue'
p211
(I135
I206
I250
I255
tp212
sS'dimgrey'
p213
(I105
I105
I105
I255
tp214
sS'grey46'
p215
(I117
I117
I117
I255
tp216
sS'darkorchid2'
p217
(I178
I58
I238
I255
tp218
sS'darkorchid3'
p219
(I154
I50
I205
I255
tp220
sS'blue'
p221
(I0
I0
I255
I255
tp222
sS'rosybrown2'
p223
(I238
I180
I180
I255
tp224
sS'honeydew'
p225
(I240
I255
I240
I255
tp226
sS'gray18'
p227
(I46
I46
I46
I255
tp228
sS'cornflowerblue'
p229
(I100
I149
I237
I255
tp230
sS'gray14'
p231
(I36
I36
I36
I255
tp232
sS'gray15'
p233
(I38
I38
I38
I255
tp234
sS'gray16'
p235
(I41
I41
I41
I255
tp236
sS'gray17'
p237
(I43
I43
I43
I255
tp238
sS'gray10'
p239
(I26
I26
I26
I255
tp240
sS'gray11'
p241
(I28
I28
I28
I255
tp242
sS'gray12'
p243
(I31
I31
I31
I255
tp244
sS'gray13'
p245
(I33
I33
I33
I255
tp246
sS'gold3'
p247
(I205
I173
I0
I255
tp248
sS'gold2'
p249
(I238
I201
I0
I255
tp250
sS'gold1'
p251
(I255
I215
I0
I255
tp252
sS'palevioletred1'
p253
(I255
I130
I171
I255
tp254
sS'palevioletred2'
p255
(I238
I121
I159
I255
tp256
sS'palevioletred3'
p257
(I205
I104
I137
I255
tp258
sS'wheat4'
p259
(I139
I126
I102
I255
tp260
sS'mediumpurple'
p261
(I147
I112
I219
I255
tp262
sS'lightblue2'
p263
(I178
I223
I238
I255
tp264
sS'darkcyan'
p265
(I0
I139
I139
I255
tp266
sS'grey90'
p267
(I229
I229
I229
I255
tp268
sS'lightblue1'
p269
(I191
I239
I255
I255
tp270
sS'lightblue4'
p271
(I104
I131
I139
I255
tp272
sS'gray33'
p273
(I84
I84
I84
I255
tp274
sS'skyblue4'
p275
(I74
I112
I139
I255
tp276
sS'skyblue1'
p277
(I135
I206
I255
I255
tp278
sS'deepskyblue2'
p279
(I0
I178
I238
I255
tp280
sS'skyblue3'
p281
(I108
I166
I205
I255
tp282
sS'skyblue2'
p283
(I126
I192
I238
I255
tp284
sS'lavenderblush1'
p285
(I255
I240
I245
I255
tp286
sS'lavenderblush3'
p287
(I205
I193
I197
I255
tp288
sS'lavenderblush2'
p289
(I238
I224
I229
I255
tp290
sS'lavenderblush4'
p291
(I139
I131
I134
I255
tp292
sS'snow1'
p293
(I255
I250
I250
I255
tp294
sS'gray36'
p295
(I92
I92
I92
I255
tp296
sS'olivedrab3'
p297
(I154
I205
I50
I255
tp298
sS'steelblue'
p299
(I70
I130
I180
I255
tp300
sS'mediumturquoise'
p301
(I72
I209
I204
I255
tp302
sS'gray34'
p303
(I87
I87
I87
I255
tp304
sS'floralwhite'
p305
(I255
I250
I240
I255
tp306
sS'grey39'
p307
(I99
I99
I99
I255
tp308
sS'grey36'
p309
(I92
I92
I92
I255
tp310
sS'grey37'
p311
(I94
I94
I94
I255
tp312
sS'grey34'
p313
(I87
I87
I87
I255
tp314
sS'grey35'
p315
(I89
I89
I89
I255
tp316
sS'grey32'
p317
(I82
I82
I82
I255
tp318
sS'grey33'
p319
(I84
I84
I84
I255
tp320
sS'grey30'
p321
(I77
I77
I77
I255
tp322
sS'grey31'
p323
(I79
I79
I79
I255
tp324
sS'steelblue1'
p325
(I99
I184
I255
I255
tp326
sS'sienna4'
p327
(I139
I71
I38
I255
tp328
sS'steelblue3'
p329
(I79
I148
I205
I255
tp330
sS'gray80'
p331
(I204
I204
I204
I255
tp332
sS'sienna1'
p333
(I255
I130
I71
I255
tp334
sS'steelblue4'
p335
(I54
I100
I139
I255
tp336
sS'sienna3'
p337
(I205
I104
I57
I255
tp338
sS'gray84'
p339
(I214
I214
I214
I255
tp340
sS'lightyellow1'
p341
(I255
I255
I224
I255
tp342
sS'lightyellow2'
p343
(I238
I238
I209
I255
tp344
sS'gray88'
p345
(I224
I224
I224
I255
tp346
sS'lightyellow4'
p347
(I139
I139
I122
I255
tp348
sS'gray38'
p349
(I97
I97
I97
I255
tp350
sS'hotpink4'
p351
(I139
I58
I98
I255
tp352
sS'indianred2'
p353
(I238
I99
I99
I255
tp354
sS'lightgoldenrod'
p355
(I238
I221
I130
I255
tp356
sS'yellow4'
p357
(I139
I139
I0
I255
tp358
sS'greenyellow'
p359
(I173
I255
I47
I255
tp360
sS'darkolivegreen2'
p361
(I188
I238
I104
I255
tp362
sS'navajowhite4'
p363
(I139
I121
I94
I255
tp364
sS'darkslategray4'
p365
(I82
I139
I139
I255
tp366
sS'olivedrab'
p367
(I107
I142
I35
I255
tp368
sS'navajowhite1'
p369
(I255
I222
I173
I255
tp370
sS'navajowhite2'
p371
(I238
I207
I161
I255
tp372
sS'darkgoldenrod1'
p373
(I255
I185
I15
I255
tp374
sS'sienna'
p375
(I160
I82
I45
I255
tp376
sS'lightslategrey'
p377
(I119
I136
I153
I255
tp378
sS'palegreen2'
p379
(I144
I238
I144
I255
tp380
sS'aquamarine4'
p381
(I69
I139
I116
I255
tp382
sS'magenta1'
p383
(I255
I0
I255
I255
tp384
sS'palegreen4'
p385
(I84
I139
I84
I255
tp386
sS'palegreen'
p387
(I152
I251
I152
I255
tp388
sS'seashell'
p389
(I255
I245
I238
I255
tp390
sS'paleturquoise2'
p391
(I174
I238
I238
I255
tp392
sS'royalblue'
p393
(I65
I105
I225
I255
tp394
sS'gainsboro'
p395
(I220
I220
I220
I255
tp396
sS'cadetblue'
p397
(I95
I158
I160
I255
tp398
sS'peru'
p399
(I205
I133
I63
I255
tp400
sS'aquamarine'
p401
(I127
I255
I212
I255
tp402
sS'tan4'
p403
(I139
I90
I43
I255
tp404
sS'tan3'
p405
(I205
I133
I63
I255
tp406
sS'tan2'
p407
(I238
I154
I73
I255
tp408
sS'tan1'
p409
(I255
I165
I79
I255
tp410
sS'darkslategray'
p411
(I47
I79
I79
I255
tp412
sS'red3'
p413
(I205
I0
I0
I255
tp414
sS'red2'
p415
(I238
I0
I0
I255
tp416
sS'red1'
p417
(I255
I0
I0
I255
tp418
sS'dodgerblue'
p419
(I30
I144
I255
I255
tp420
sS'salmon1'
p421
(I255
I140
I105
I255
tp422
sS'red4'
p423
(I139
I0
I0
I255
tp424
sS'paleturquoise1'
p425
(I187
I255
I255
I255
tp426
sS'lemonchiffon'
p427
(I255
I250
I205
I255
tp428
sS'chocolate'
p429
(I210
I105
I30
I255
tp430
sS'grey83'
p431
(I212
I212
I212
I255
tp432
sS'darkgrey'
p433
(I169
I169
I169
I255
tp434
sS'darkorange4'
p435
(I139
I69
I0
I255
tp436
sS'mintcream'
p437
(I245
I255
I250
I255
tp438
sS'darkorange1'
p439
(I255
I127
I0
I255
tp440
sS'darkorange3'
p441
(I205
I102
I0
I255
tp442
sS'darkorange2'
p443
(I238
I118
I0
I255
tp444
sS'grey18'
p445
(I46
I46
I46
I255
tp446
sS'grey19'
p447
(I48
I48
I48
I255
tp448
sS'slategray2'
p449
(I185
I211
I238
I255
tp450
sS'grey38'
p451
(I97
I97
I97
I255
tp452
sS'thistle4'
p453
(I139
I123
I139
I255
tp454
sS'moccasin'
p455
(I255
I228
I181
I255
tp456
sS'grey10'
p457
(I26
I26
I26
I255
tp458
sS'grey11'
p459
(I28
I28
I28
I255
tp460
sS'chocolate2'
p461
(I238
I118
I33
I255
tp462
sS'grey13'
p463
(I33
I33
I33
I255
tp464
sS'chocolate4'
p465
(I139
I69
I19
I255
tp466
sS'grey15'
p467
(I38
I38
I38
I255
tp468
sS'grey16'
p469
(I41
I41
I41
I255
tp470
sS'grey17'
p471
(I43
I43
I43
I255
tp472
sS'deepskyblue4'
p473
(I0
I104
I139
I255
tp474
sS'olivedrab1'
p475
(I192
I255
I62
I255
tp476
sS'gray69'
p477
(I176
I176
I176
I255
tp478
sS'gray68'
p479
(I173
I173
I173
I255
tp480
sS'deeppink'
p481
(I255
I20
I147
I255
tp482
sS'gray65'
p483
(I166
I166
I166
I255
tp484
sS'gray64'
p485
(I163
I163
I163
I255
tp486
sS'gray67'
p487
(I171
I171
I171
I255
tp488
sS'gray66'
p489
(I168
I168
I168
I255
tp490
sS'gray61'
p491
(I156
I156
I156
I255
tp492
sS'gray60'
p493
(I153
I153
I153
I255
tp494
sS'gray63'
p495
(I161
I161
I161
I255
tp496
sS'gray62'
p497
(I158
I158
I158
I255
tp498
sS'goldenrod4'
p499
(I139
I105
I20
I255
tp500
sS'grey40'
p501
(I102
I102
I102
I255
tp502
sS'goldenrod1'
p503
(I255
I193
I37
I255
tp504
sS'goldenrod2'
p505
(I238
I180
I34
I255
tp506
sS'goldenrod3'
p507
(I205
I155
I29
I255
tp508
sS'springgreen1'
p509
(I0
I255
I127
I255
tp510
sS'springgreen2'
p511
(I0
I238
I118
I255
tp512
sS'darkgoldenrod'
p513
(I184
I134
I11
I255
tp514
sS'springgreen4'
p515
(I0
I139
I69
I255
tp516
sS'burlywood1'
p517
(I255
I211
I155
I255
tp518
sS'sandybrown'
p519
(I244
I164
I96
I255
tp520
sS'lightgray'
p521
(I211
I211
I211
I255
tp522
sS'darkorchid'
p523
(I153
I50
I204
I255
tp524
sS'seashell2'
p525
(I238
I229
I222
I255
tp526
sS'seashell3'
p527
(I205
I197
I191
I255
tp528
sS'tan'
p529
(I210
I180
I140
I255
tp530
sS'seashell1'
p531
(I255
I245
I238
I255
tp532
sS'violet'
p533
(I238
I130
I238
I255
tp534
sS'mistyrose3'
p535
(I205
I183
I181
I255
tp536
sS'magenta'
p537
(I255
I0
I255
I255
tp538
sS'pink'
p539
(I255
I192
I203
I255
tp540
sS'firebrick3'
p541
(I205
I38
I38
I255
tp542
sS'ivory1'
p543
(I255
I255
I240
I255
tp544
sS'palevioletred'
p545
(I219
I112
I147
I255
tp546
sS'mediumseagreen'
p547
(I60
I179
I113
I255
tp548
sS'firebrick2'
p549
(I238
I44
I44
I255
tp550
sS'darkorange'
p551
(I255
I140
I0
I255
tp552
sS'powderblue'
p553
(I176
I224
I230
I255
tp554
sS'deepskyblue1'
p555
(I0
I191
I255
I255
tp556
sS'firebrick1'
p557
(I255
I48
I48
I255
tp558
sS'burlywood4'
p559
(I139
I115
I85
I255
tp560
sS'steelblue2'
p561
(I92
I172
I238
I255
tp562
sS'seashell4'
p563
(I139
I134
I130
I255
tp564
sS'grey89'
p565
(I227
I227
I227
I255
tp566
sS'gray100'
p567
(I255
I255
I255
I255
tp568
sS'grey87'
p569
(I222
I222
I222
I255
tp570
sS'gray87'
p571
(I222
I222
I222
I255
tp572
sS'grey85'
p573
(I217
I217
I217
I255
tp574
sS'grey84'
p575
(I214
I214
I214
I255
tp576
sS'midnightblue'
p577
(I25
I25
I112
I255
tp578
sS'grey82'
p579
(I209
I209
I209
I255
tp580
sS'grey81'
p581
(I207
I207
I207
I255
tp582
sS'gray86'
p583
(I219
I219
I219
I255
tp584
sS'ivory3'
p585
(I205
I205
I193
I255
tp586
sS'grey5'
p587
(I13
I13
I13
I255
tp588
sS'bisque'
p589
(I255
I228
I196
I255
tp590
sS'gray85'
p591
(I217
I217
I217
I255
tp592
sS'ivory2'
p593
(I238
I238
I224
I255
tp594
sS'darkseagreen2'
p595
(I180
I238
I180
I255
tp596
sS'sienna2'
p597
(I238
I121
I66
I255
tp598
sS'paleturquoise4'
p599
(I102
I139
I139
I255
tp600
sS'grey72'
p601
(I184
I184
I184
I255
tp602
sS'grey73'
p603
(I186
I186
I186
I255
tp604
sS'grey70'
p605
(I179
I179
I179
I255
tp606
sS'grey71'
p607
(I181
I181
I181
I255
tp608
sS'lightslategray'
p609
(I119
I136
I153
I255
tp610
sS'grey77'
p611
(I196
I196
I196
I255
tp612
sS'grey74'
p613
(I189
I189
I189
I255
tp614
sS'dodgerblue1'
p615
(I30
I144
I255
I255
tp616
sS'pink1'
p617
(I255
I181
I197
I255
tp618
sS'mediumpurple1'
p619
(I171
I130
I255
I255
tp620
sS'grey78'
p621
(I199
I199
I199
I255
tp622
sS'grey79'
p623
(I201
I201
I201
I255
tp624
sS'mediumpurple4'
p625
(I93
I71
I139
I255
tp626
sS'gray89'
p627
(I227
I227
I227
I255
tp628
sS'tomato'
p629
(I255
I99
I71
I255
tp630
sS'darkolivegreen4'
p631
(I110
I139
I61
I255
tp632
sS'gray45'
p633
(I115
I115
I115
I255
tp634
sS'lightsteelblue'
p635
(I176
I196
I222
I255
tp636
sS'darkolivegreen1'
p637
(I202
I255
I112
I255
tp638
sS'gray42'
p639
(I107
I107
I107
I255
tp640
sS'hotpink'
p641
(I255
I105
I180
I255
tp642
sS'lightyellow'
p643
(I255
I255
I224
I255
tp644
sS'lavenderblush'
p645
(I255
I240
I245
I255
tp646
sS'violetred4'
p647
(I139
I34
I82
I255
tp648
sS'salmon3'
p649
(I205
I112
I84
I255
tp650
sS'ivory4'
p651
(I139
I139
I131
I255
tp652
sS'salmon4'
p653
(I139
I76
I57
I255
tp654
sS'gray49'
p655
(I125
I125
I125
I255
tp656
sS'gray48'
p657
(I122
I122
I122
I255
tp658
sS'linen'
p659
(I250
I240
I230
I255
tp660
sS'cyan1'
p661
(I0
I255
I255
I255
tp662
sS'green'
p663
(I0
I255
I0
I255
tp664
sS'blueviolet'
p665
(I138
I43
I226
I255
tp666
sS'brown2'
p667
(I238
I59
I59
I255
tp668
sS'brown3'
p669
(I205
I51
I51
I255
tp670
sS'peachpuff'
p671
(I255
I218
I185
I255
tp672
sS'brown4'
p673
(I139
I35
I35
I255
tp674
sS'firebrick4'
p675
(I139
I26
I26
I255
tp676
sS'azure1'
p677
(I240
I255
I255
I255
tp678
sS'azure3'
p679
(I193
I205
I205
I255
tp680
sS'azure2'
p681
(I224
I238
I238
I255
tp682
sS'azure4'
p683
(I131
I139
I139
I255
tp684
sS'orange4'
p685
(I139
I90
I0
I255
tp686
sS'firebrick'
p687
(I178
I34
I34
I255
tp688
sS'indianred'
p689
(I205
I92
I92
I255
tp690
sS'orange1'
p691
(I255
I165
I0
I255
tp692
sS'orange3'
p693
(I205
I133
I0
I255
tp694
sS'orange2'
p695
(I238
I154
I0
I255
tp696
sS'darkolivegreen'
p697
(I85
I107
I47
I255
tp698
sS'gray2'
p699
(I5
I5
I5
I255
tp700
sS'gray24'
p701
(I61
I61
I61
I255
tp702
sS'slategrey'
p703
(I112
I128
I144
I255
tp704
sS'lightgoldenrod1'
p705
(I255
I236
I139
I255
tp706
sS'darkred'
p707
(I139
I0
I0
I255
tp708
sS'gray3'
p709
(I8
I8
I8
I255
tp710
sS'cadetblue4'
p711
(I83
I134
I139
I255
tp712
sS'lightsteelblue1'
p713
(I202
I225
I255
I255
tp714
sS'lightsteelblue2'
p715
(I188
I210
I238
I255
tp716
sS'darkslategrey'
p717
(I47
I79
I79
I255
tp718
sS'lightsteelblue4'
p719
(I110
I123
I139
I255
tp720
sS'mediumvioletred'
p721
(I199
I21
I133
I255
tp722
sS'gray59'
p723
(I150
I150
I150
I255
tp724
sS'darkgoldenrod4'
p725
(I139
I101
I8
I255
tp726
sS'mediumorchid1'
p727
(I224
I102
I255
I255
tp728
sS'magenta4'
p729
(I139
I0
I139
I255
tp730
sS'magenta3'
p731
(I205
I0
I205
I255
tp732
sS'magenta2'
p733
(I238
I0
I238
I255
tp734
sS'yellow1'
p735
(I255
I255
I0
I255
tp736
sS'gray7'
p737
(I18
I18
I18
I255
tp738
sS'chartreuse'
p739
(I127
I255
I0
I255
tp740
sS'mediumblue'
p741
(I0
I0
I205
I255
tp742
sS'gray4'
p743
(I10
I10
I10
I255
tp744
sS'springgreen'
p745
(I0
I255
I127
I255
tp746
sS'orange'
p747
(I255
I165
I0
I255
tp748
sS'gray5'
p749
(I13
I13
I13
I255
tp750
sS'lightsalmon'
p751
(I255
I160
I122
I255
tp752
sS'cadetblue2'
p753
(I142
I229
I238
I255
tp754
sS'cyan2'
p755
(I0
I238
I238
I255
tp756
sS'turquoise'
p757
(I64
I224
I208
I255
tp758
sS'lightseagreen'
p759
(I32
I178
I170
I255
tp760
sS'grey8'
p761
(I20
I20
I20
I255
tp762
sS'grey9'
p763
(I23
I23
I23
I255
tp764
sS'grey6'
p765
(I15
I15
I15
I255
tp766
sS'grey7'
p767
(I18
I18
I18
I255
tp768
sS'grey4'
p769
(I10
I10
I10
I255
tp770
sS'grey88'
p771
(I224
I224
I224
I255
tp772
sS'grey2'
p773
(I5
I5
I5
I255
tp774
sS'grey3'
p775
(I8
I8
I8
I255
tp776
sS'grey0'
p777
(I0
I0
I0
I255
tp778
sS'grey1'
p779
(I3
I3
I3
I255
tp780
sS'olivedrab4'
p781
(I105
I139
I34
I255
tp782
sS'goldenrod'
p783
(I218
I165
I32
I255
tp784
sS'grey58'
p785
(I148
I148
I148
I255
tp786
sS'grey59'
p787
(I150
I150
I150
I255
tp788
sS'grey86'
p789
(I219
I219
I219
I255
tp790
sS'grey54'
p791
(I138
I138
I138
I255
tp792
sS'grey55'
p793
(I140
I140
I140
I255
tp794
sS'grey56'
p795
(I143
I143
I143
I255
tp796
sS'grey57'
p797
(I145
I145
I145
I255
tp798
sS'grey50'
p799
(I127
I127
I127
I255
tp800
sS'grey51'
p801
(I130
I130
I130
I255
tp802
sS'grey52'
p803
(I133
I133
I133
I255
tp804
sS'grey53'
p805
(I135
I135
I135
I255
tp806
sS'gray21'
p807
(I54
I54
I54
I255
tp808
sS'cyan3'
p809
(I0
I205
I205
I255
tp810
sS'gray23'
p811
(I59
I59
I59
I255
tp812
sS'gray22'
p813
(I56
I56
I56
I255
tp814
sS'gray25'
p815
(I64
I64
I64
I255
tp816
sS'lightsteelblue3'
p817
(I162
I181
I205
I255
tp818
sS'gray27'
p819
(I69
I69
I69
I255
tp820
sS'gray26'
p821
(I66
I66
I66
I255
tp822
sS'peachpuff4'
p823
(I139
I119
I101
I255
tp824
sS'gray28'
p825
(I71
I71
I71
I255
tp826
sS'darkviolet'
p827
(I148
I0
I211
I255
tp828
sS'slateblue3'
p829
(I105
I89
I205
I255
tp830
sS'peachpuff1'
p831
(I255
I218
I185
I255
tp832
sS'peachpuff2'
p833
(I238
I203
I173
I255
tp834
sS'peachpuff3'
p835
(I205
I175
I149
I255
tp836
sS'gray29'
p837
(I74
I74
I74
I255
tp838
sS'rosybrown3'
p839
(I205
I155
I155
I255
tp840
sS'purple3'
p841
(I125
I38
I205
I255
tp842
sS'darkgray'
p843
(I169
I169
I169
I255
tp844
sS'darkmagenta'
p845
(I139
I0
I139
I255
tp846
sS'grey80'
p847
(I204
I204
I204
I255
tp848
sS'grey64'
p849
(I163
I163
I163
I255
tp850
sS'grey12'
p851
(I31
I31
I31
I255
tp852
sS'orangered3'
p853
(I205
I55
I0
I255
tp854
sS'slateblue4'
p855
(I71
I60
I139
I255
tp856
sS'gray83'
p857
(I212
I212
I212
I255
tp858
sS'orangered2'
p859
(I238
I64
I0
I255
tp860
sS'palevioletred4'
p861
(I139
I71
I93
I255
tp862
sS'orangered1'
p863
(I255
I69
I0
I255
tp864
sS'slateblue2'
p865
(I122
I103
I238
I255
tp866
sS'lightgoldenrod4'
p867
(I139
I129
I76
I255
tp868
sS'yellowgreen'
p869
(I154
I205
I50
I255
tp870
sS'royalblue1'
p871
(I72
I118
I255
I255
tp872
sS'slateblue1'
p873
(I131
I111
I255
I255
tp874
sS'royalblue3'
p875
(I58
I95
I205
I255
tp876
sS'royalblue2'
p877
(I67
I110
I238
I255
tp878
sS'navy'
p879
(I0
I0
I128
I255
tp880
sS'orchid'
p881
(I218
I112
I214
I255
tp882
sS'ghostwhite'
p883
(I248
I248
I255
I255
tp884
sS'purple'
p885
(I160
I32
I240
I255
tp886
sS'plum'
p887
(I221
I160
I221
I255
tp888
sS'khaki2'
p889
(I238
I230
I133
I255
tp890
sS'orangered4'
p891
(I139
I37
I0
I255
tp892
sS'gray94'
p893
(I240
I240
I240
I255
tp894
sS'gray95'
p895
(I242
I242
I242
I255
tp896
sS'gray96'
p897
(I245
I245
I245
I255
tp898
sS'gray97'
p899
(I247
I247
I247
I255
tp900
sS'gray90'
p901
(I229
I229
I229
I255
tp902
sS'gray91'
p903
(I232
I232
I232
I255
tp904
sS'gray92'
p905
(I235
I235
I235
I255
tp906
sS'wheat2'
p907
(I238
I216
I174
I255
tp908
sS'coral3'
p909
(I205
I91
I69
I255
tp910
sS'coral2'
p911
(I238
I106
I80
I255
tp912
sS'coral1'
p913
(I255
I114
I86
I255
tp914
sS'rosybrown4'
p915
(I139
I105
I105
I255
tp916
sS'deepskyblue3'
p917
(I0
I154
I205
I255
tp918
sS'indianred1'
p919
(I255
I106
I106
I255
tp920
sS'red'
p921
(I255
I0
I0
I255
tp922
sS'indianred3'
p923
(I205
I85
I85
I255
tp924
sS'slategray'
p925
(I112
I128
I144
I255
tp926
sS'khaki'
p927
(I240
I230
I140
I255
tp928
sS'wheat'
p929
(I245
I222
I179
I255
tp930
sS'lightslateblue'
p931
(I132
I112
I255
I255
tp932
sS'deepskyblue'
p933
(I0
I191
I255
I255
tp934
sS'cornsilk'
p935
(I255
I248
I220
I255
tp936
sS'lightskyblue4'
p937
(I96
I123
I139
I255
tp938
sS'lightskyblue1'
p939
(I176
I226
I255
I255
tp940
sS'lightskyblue2'
p941
(I164
I211
I238
I255
tp942
sS'lightskyblue3'
p943
(I141
I182
I205
I255
tp944
sS'blue1'
p945
(I0
I0
I255
I255
tp946
sS'grey29'
p947
(I74
I74
I74
I255
tp948
sS'blue3'
p949
(I0
I0
I205
I255
tp950
sS'blue2'
p951
(I0
I0
I238
I255
tp952
sS'blue4'
p953
(I0
I0
I139
I255
tp954
sS'darkgoldenrod3'
p955
(I205
I149
I12
I255
tp956
sS'plum4'
p957
(I139
I102
I139
I255
tp958
sS'gray56'
p959
(I143
I143
I143
I255
tp960
sS'coral'
p961
(I255
I127
I80
I255
tp962
sS'lightgrey'
p963
(I211
I211
I211
I255
tp964
sS'darkkhaki'
p965
(I189
I183
I107
I255
tp966
sS'grey25'
p967
(I64
I64
I64
I255
tp968
sS'lightcyan1'
p969
(I224
I255
I255
I255
tp970
sS'darksalmon'
p971
(I233
I150
I122
I255
tp972
sS'beige'
p973
(I245
I245
I220
I255
tp974
sS'azure'
p975
(I240
I255
I255
I255
tp976
sS'violetred1'
p977
(I255
I62
I150
I255
tp978
sS'dodgerblue2'
p979
(I28
I134
I238
I255
tp980
sS'violetred3'
p981
(I205
I50
I120
I255
tp982
sS'dodgerblue4'
p983
(I16
I78
I139
I255
tp984
sS'mediumspringgreen'
p985
(I0
I250
I154
I255
tp986
sS'tomato4'
p987
(I139
I54
I38
I255
tp988
sS'whitesmoke'
p989
(I245
I245
I245
I255
tp990
sS'pink4'
p991
(I139
I99
I108
I255
tp992
sS'tomato1'
p993
(I255
I99
I71
I255
tp994
sS'gray57'
p995
(I145
I145
I145
I255
tp996
sS'tomato3'
p997
(I205
I79
I57
I255
tp998
sS'tomato2'
p999
(I238
I92
I66
I255
tp1000
sS'snow4'
p1001
(I139
I137
I137
I255
tp1002
sS'grey75'
p1003
(I191
I191
I191
I255
tp1004
sS'snow2'
p1005
(I238
I233
I233
I255
tp1006
sS'snow3'
p1007
(I205
I201
I201
I255
tp1008
sS'mistyrose'
p1009
(I255
I228
I225
I255
tp1010
sS'grey23'
p1011
(I59
I59
I59
I255
tp1012
sS'turquoise3'
p1013
(I0
I197
I205
I255
tp1014
sS'cornsilk3'
p1015
(I205
I200
I177
I255
tp1016
sS'lightcoral'
p1017
(I240
I128
I128
I255
tp1018
sS'orangered'
p1019
(I255
I69
I0
I255
tp1020
sS'navajowhite'
p1021
(I255
I222
I173
I255
tp1022
sS'springgreen3'
p1023
(I0
I205
I102
I255
tp1024
sS'pink3'
p1025
(I205
I145
I158
I255
tp1026
sS'violetred'
p1027
(I208
I32
I144
I255
tp1028
sS'burlywood'
p1029
(I222
I184
I135
I255
tp1030
sS'mediumpurple3'
p1031
(I137
I104
I205
I255
tp1032
sS'grey76'
p1033
(I194
I194
I194
I255
tp1034
sS'grey28'
p1035
(I71
I71
I71
I255
tp1036
sS'gray82'
p1037
(I209
I209
I209
I255
tp1038
sS'lightcyan'
p1039
(I224
I255
I255
I255
tp1040
sS'grey24'
p1041
(I61
I61
I61
I255
tp1042
sS'grey27'
p1043
(I69
I69
I69
I255
tp1044
sS'grey26'
p1045
(I66
I66
I66
I255
tp1046
sS'grey21'
p1047
(I54
I54
I54
I255
tp1048
sS'grey20'
p1049
(I51
I51
I51
I255
tp1050
sS'lightcyan3'
p1051
(I180
I205
I205
I255
tp1052
sS'grey22'
p1053
(I56
I56
I56
I255
tp1054
sS'darkgreen'
p1055
(I0
I100
I0
I255
tp1056
sS'gray78'
p1057
(I199
I199
I199
I255
tp1058
sS'gray79'
p1059
(I201
I201
I201
I255
tp1060
sS'gray76'
p1061
(I194
I194
I194
I255
tp1062
sS'gray77'
p1063
(I196
I196
I196
I255
tp1064
sS'white'
p1065
(I255
I255
I255
I255
tp1066
sS'gray75'
p1067
(I191
I191
I191
I255
tp1068
sS'gray72'
p1069
(I184
I184
I184
I255
tp1070
sS'gray73'
p1071
(I186
I186
I186
I255
tp1072
sS'gray70'
p1073
(I179
I179
I179
I255
tp1074
sS'gray71'
p1075
(I181
I181
I181
I255
tp1076
sS'khaki4'
p1077
(I139
I134
I78
I255
tp1078
sS'ivory'
p1079
(I255
I255
I240
I255
tp1080
sS'mediumorchid4'
p1081
(I122
I55
I139
I255
tp1082
sS'gray46'
p1083
(I117
I117
I117
I255
tp1084
sS'honeydew1'
p1085
(I240
I255
I240
I255
tp1086
sS'lightyellow3'
p1087
(I205
I205
I180
I255
tp1088
sS'lightpink2'
p1089
(I238
I162
I173
I255
tp1090
sS'lightpink3'
p1091
(I205
I140
I149
I255
tp1092
sS'aliceblue'
p1093
(I240
I248
I255
I255
tp1094
sS'lightpink1'
p1095
(I255
I174
I185
I255
tp1096
sS'lightpink4'
p1097
(I139
I95
I101
I255
tp1098
sS'darkolivegreen3'
p1099
(I162
I205
I90
I255
tp1100
sS'gray43'
p1101
(I110
I110
I110
I255
tp1102
sS'seagreen4'
p1103
(I46
I139
I87
I255
tp1104
sS'seagreen3'
p1105
(I67
I205
I128
I255
tp1106
sS'gray74'
p1107
(I189
I189
I189
I255
tp1108
sS'seagreen1'
p1109
(I84
I255
I159
I255
tp1110
sS'khaki1'
p1111
(I255
I246
I143
I255
tp1112
sS'cornsilk4'
p1113
(I139
I136
I120
I255
tp1114
sS'cornsilk2'
p1115
(I238
I232
I205
I255
tp1116
sS'gray41'
p1117
(I105
I105
I105
I255
tp1118
sS'royalblue4'
p1119
(I39
I64
I139
I255
tp1120
sS'limegreen'
p1121
(I50
I205
I50
I255
tp1122
sS'khaki3'
p1123
(I205
I198
I115
I255
tp1124
sS'grey49'
p1125
(I125
I125
I125
I255
tp1126
sS'violetred2'
p1127
(I238
I58
I140
I255
tp1128
sS'grey91'
p1129
(I232
I232
I232
I255
tp1130
sS'grey92'
p1131
(I235
I235
I235
I255
tp1132
sS'grey93'
p1133
(I237
I237
I237
I255
tp1134
sS'grey94'
p1135
(I240
I240
I240
I255
tp1136
sS'grey95'
p1137
(I242
I242
I242
I255
tp1138
sS'grey96'
p1139
(I245
I245
I245
I255
tp1140
sS'grey97'
p1141
(I247
I247
I247
I255
tp1142
sS'grey98'
p1143
(I250
I250
I250
I255
tp1144
sS'grey99'
p1145
(I252
I252
I252
I255
tp1146
sS'burlywood3'
p1147
(I205
I170
I125
I255
tp1148
sS'palegreen1'
p1149
(I154
I255
I154
I255
tp1150
sS'palegreen3'
p1151
(I124
I205
I124
I255
tp1152
sS'salmon2'
p1153
(I238
I130
I98
I255
tp1154
sS'lightgoldenrod3'
p1155
(I205
I190
I112
I255
tp1156
sS'seagreen2'
p1157
(I78
I238
I148
I255
tp1158
sS'lightcyan4'
p1159
(I122
I139
I139
I255
tp1160
sS'honeydew2'
p1161
(I224
I238
I224
I255
tp1162
sS'lightgoldenrod2'
p1163
(I238
I220
I130
I255
tp1164
sS'mistyrose2'
p1165
(I238
I213
I210
I255
tp1166
sS'mediumorchid'
p1167
(I186
I85
I211
I255
tp1168
sS'maroon'
p1169
(I176
I48
I96
I255
tp1170
sS'grey43'
p1171
(I110
I110
I110
I255
tp1172
sS'gray35'
p1173
(I89
I89
I89
I255
tp1174
sS'mistyrose1'
p1175
(I255
I228
I225
I255
tp1176
sS'turquoise2'
p1177
(I0
I229
I238
I255
tp1178
sS'turquoise1'
p1179
(I0
I245
I255
I255
tp1180
sS'lightcyan2'
p1181
(I209
I238
I238
I255
tp1182
sS'mistyrose4'
p1183
(I139
I125
I123
I255
tp1184
sS'rosybrown'
p1185
(I188
I143
I143
I255
tp1186
sS'turquoise4'
p1187
(I0
I134
I139
I255
tp1188
sS'yellow3'
p1189
(I205
I205
I0
I255
tp1190
sS'lightblue'
p1191
(I173
I216
I230
I255
tp1192
sS'blanchedalmond'
p1193
(I255
I235
I205
I255
tp1194
sS'slateblue'
p1195
(I106
I90
I205
I255
tp1196
sS'honeydew3'
p1197
(I193
I205
I193
I255
tp1198
sS'dimgray'
p1199
(I105
I105
I105
I255
tp1200
sS'grey47'
p1201
(I120
I120
I120
I255
tp1202
sS'seagreen'
p1203
(I46
I139
I87
I255
tp1204
sS'grey14'
p1205
(I36
I36
I36
I255
tp1206
sS'snow'
p1207
(I255
I250
I250
I255
tp1208
sS'darkorchid1'
p1209
(I191
I62
I255
I255
tp1210
sS'gray58'
p1211
(I148
I148
I148
I255
tp1212
sS'gray81'
p1213
(I207
I207
I207
I255
tp1214
sS'mediumslateblue'
p1215
(I123
I104
I238
I255
tp1216
sS'cadetblue3'
p1217
(I122
I197
I205
I255
tp1218
sS'grey45'
p1219
(I115
I115
I115
I255
tp1220
sS'cadetblue1'
p1221
(I152
I245
I255
I255
tp1222
sS'gray50'
p1223
(I127
I127
I127
I255
tp1224
sS'gray51'
p1225
(I130
I130
I130
I255
tp1226
sS'gray52'
p1227
(I133
I133
I133
I255
tp1228
sS'grey44'
p1229
(I112
I112
I112
I255
tp1230
sS'gray54'
p1231
(I138
I138
I138
I255
tp1232
sS'gray55'
p1233
(I140
I140
I140
I255
tp1234
sS'paleturquoise'
p1235
(I175
I238
I238
I255
tp1236
sS'purple2'
p1237
(I145
I44
I238
I255
tp1238
sS'deeppink3'
p1239
(I205
I16
I118
I255
tp1240
sS'deeppink2'
p1241
(I238
I18
I137
I255
tp1242
sS'deeppink1'
p1243
(I255
I20
I147
I255
tp1244
sS'honeydew4'
p1245
(I131
I139
I131
I255
tp1246
sS'deeppink4'
p1247
(I139
I10
I80
I255
tp1248
sS'thistle3'
p1249
(I205
I181
I205
I255
tp1250
sS'thistle2'
p1251
(I238
I210
I238
I255
tp1252
sS'thistle1'
p1253
(I255
I225
I255
I255
tp1254
sS'salmon'
p1255
(I250
I128
I114
I255
tp1256
sS'gray93'
p1257
(I237
I237
I237
I255
tp1258
sS'gray47'
p1259
(I120
I120
I120
I255
tp1260
sS'gray39'
p1261
(I99
I99
I99
I255
tp1262
sS'mediumpurple2'
p1263
(I159
I121
I238
I255
tp1264
sS'oldlace'
p1265
(I253
I245
I230
I255
tp1266
sS'hotpink3'
p1267
(I205
I96
I144
I255
tp1268
sS'hotpink2'
p1269
(I238
I106
I167
I255
tp1270
sS'hotpink1'
p1271
(I255
I110
I180
I255
tp1272
sS'lightgreen'
p1273
(I144
I238
I144
I255
tp1274
sS'mediumorchid3'
p1275
(I180
I82
I205
I255
tp1276
sS'paleturquoise3'
p1277
(I150
I205
I205
I255
tp1278
sS'gray19'
p1279
(I48
I48
I48
I255
tp1280
sS'darkseagreen4'
p1281
(I105
I139
I105
I255
tp1282
sS'darkseagreen3'
p1283
(I155
I205
I155
I255
tp1284
sS'olivedrab2'
p1285
(I179
I238
I58
I255
tp1286
sS'darkseagreen1'
p1287
(I193
I255
I193
I255
tp1288
sS'forestgreen'
p1289
(I34
I139
I34
I255
tp1290
sS'gray40'
p1291
(I102
I102
I102
I255
tp1292
sS'purple1'
p1293
(I155
I48
I255
I255
tp1294
sS'palegoldenrod'
p1295
(I238
I232
I170
I255
tp1296
sS'gray44'
p1297
(I112
I112
I112
I255
tp1298
sS'navyblue'
p1299
(I0
I0
I128
I255
tp1300
sS'darkblue'
p1301
(I0
I0
I139
I255
tp1302
sS'mediumaquamarine'
p1303
(I102
I205
I170
I255
tp1304
sS'purple4'
p1305
(I85
I26
I139
I255
tp1306
sS'gray53'
p1307
(I135
I135
I135
I255
tp1308
sS'mediumorchid2'
p1309
(I209
I95
I238
I255
tp1310
sS'grey100'
p1311
(I255
I255
I255
I255
tp1312
sS'brown1'
p1313
(I255
I64
I64
I255
tp1314
s.